target datalayout = "e-m:e-p270:32:32-p271:32:32-p272:64:64-i64:64-i128:128-f80:128-n8:16:32:64-S128"
target triple = "x86_64-pc-linux-gnu"

@ruby_vm_redefined_flag = external global [34 x i16], align 16

; Function Attrs: nounwind sspstrong uwtable
define hidden zeroext i1 @rb_BASIC_OP_UNREDEFINED_P(i32 noundef %0, i32 noundef %1) #0 {
  %3 = alloca i32, align 4
  %4 = alloca i32, align 4
  store i32 %0, ptr %3, align 4, !tbaa !11
  store i32 %1, ptr %4, align 4, !tbaa !11
  %5 = load i32, ptr %3, align 4, !tbaa !11
  %6 = zext i32 %5 to i64
  %7 = getelementptr [34 x i16], ptr @ruby_vm_redefined_flag, i64 0, i64 %6
  %8 = load i16, ptr %7, align 2, !tbaa !63
  %9 = sext i16 %8 to i32
  %10 = load i32, ptr %4, align 4, !tbaa !11
  %11 = and i32 %9, %10
  %12 = icmp eq i32 %11, 0
  %13 = xor i1 %12, true
  %14 = xor i1 %13, true
  %15 = zext i1 %14 to i32
  %16 = sext i32 %15 to i64
  %17 = call i64 @llvm.expect.i64(i64 %16, i64 1)
  %18 = icmp ne i64 %17, 0
  ret i1 %18
}