; Function Attrs: mustprogress nofree norecurse nosync nounwind sspstrong willreturn memory(read, argmem: none, inaccessiblemem: none) uwtable
define hidden zeroext i1 @rb_BASIC_OP_UNREDEFINED_P(i32 noundef %0, i32 noundef %1) local_unnamed_addr #16 {
  %3 = zext i32 %0 to i64
  %4 = getelementptr [34 x i16], ptr @ruby_vm_redefined_flag, i64 0, i64 %3
  %5 = load i16, ptr %4, align 2, !tbaa !82
  %6 = sext i16 %5 to i32
  %7 = and i32 %1, %6
  %8 = icmp eq i32 %7, 0
  ret i1 %8
}